(dp0
Vbody
p1
V
p2
sVtitle
p3
g2
sVurl
p4
Vhttp://www.nytimes.com/aponline/2012/03/02/us/AP-US-Gulf-Oil-Spill-Settlement.html
p5
sVcomments
p6
(lp7
sVtweethandle
p8
Vnytimes
p9
sVid_str
p10
V175793505707368448
p11
sV_id
p12
ccopy_reg
_reconstructor
p13
(cbson.objectid
ObjectId
p14
c__builtin__
object
p15
Ntp16
Rp17
S'OV\x8a+\x99m%5\x9a\x00\x00\x85'
p18
bs.